target datalayout = "e-m:e-p270:32:32-p271:32:32-p272:64:64-i64:64-i128:128-f80:128-n8:16:32:64-S128"
target triple = "x86_64-unknown-linux-gnu"

%struct.Connection = type { %struct._GQueue, %struct._GQueue, i8, i8, i32, i32, i32, i32, i32, i32 }
%struct._GQueue = type { ptr, ptr, i32 }

; Function Attrs: nounwind sspstrong uwtable
define dso_local void @connection_destroy(ptr noundef %opaque) #0 {
entry:
  %opaque.addr = alloca ptr, align 8
  %conn = alloca ptr, align 8
  store ptr %opaque, ptr %opaque.addr, align 8
  %0 = load ptr, ptr %opaque.addr, align 8
  store ptr %0, ptr %conn, align 8
  %1 = load ptr, ptr %conn, align 8
  %primary_list = getelementptr inbounds %struct.Connection, ptr %1, i32 0, i32 0
  call void @g_queue_foreach(ptr noundef %primary_list, ptr noundef @packet_destroy, ptr noundef null)
  %2 = load ptr, ptr %conn, align 8
  %primary_list1 = getelementptr inbounds %struct.Connection, ptr %2, i32 0, i32 0
  call void @g_queue_clear(ptr noundef %primary_list1)
  %3 = load ptr, ptr %conn, align 8
  %secondary_list = getelementptr inbounds %struct.Connection, ptr %3, i32 0, i32 1
  call void @g_queue_foreach(ptr noundef %secondary_list, ptr noundef @packet_destroy, ptr noundef null)
  %4 = load ptr, ptr %conn, align 8
  %secondary_list2 = getelementptr inbounds %struct.Connection, ptr %4, i32 0, i32 1
  call void @g_queue_clear(ptr noundef %secondary_list2)
  br label %do.body

do.body:                                          ; preds = %entry
  %5 = load ptr, ptr %conn, align 8
  call void @g_slice_free1(i64 noundef 80, ptr noundef %5)
  br label %do.end

do.end:                                           ; preds = %do.body
  ret void
}