; Function Attrs: nounwind sspstrong uwtable
define dso_local void @connection_destroy(ptr noundef %opaque) local_unnamed_addr #2 {
entry:
  tail call void @g_queue_foreach(ptr noundef %opaque, ptr noundef nonnull @packet_destroy, ptr noundef null) #15
  tail call void @g_queue_clear(ptr noundef %opaque) #15
  %secondary_list = getelementptr inbounds nuw i8, ptr %opaque, i64 24
  tail call void @g_queue_foreach(ptr noundef nonnull %secondary_list, ptr noundef nonnull @packet_destroy, ptr noundef null) #15
  tail call void @g_queue_clear(ptr noundef nonnull %secondary_list) #15
  tail call void @g_slice_free1(i64 noundef 80, ptr noundef %opaque) #15
  ret void
}